target datalayout = "e-m:e-p270:32:32-p271:32:32-p272:64:64-i64:64-i128:128-f80:128-n8:16:32:64-S128"
target triple = "x86_64-pc-linux-gnu"

%struct.TwoPhaseStateData = type { ptr, i32, [0 x ptr] }
%struct.GlobalTransactionData = type { ptr, i32, i64, i64, i64, i32, i32, i32, i8, i8, i8, [200 x i8] }
%struct.PGPROC = type { %struct.dlist_node, ptr, ptr, i32, %struct.Latch, i32, i32, i32, i32, %struct.anon, i32, i32, i32, i8, i8, i8, i8, %struct.proclist_node, %struct.proclist_node, ptr, ptr, i32, i32, %struct.pg_atomic_uint64, i32, i8, i64, i32, %struct.dlist_node, [16 x %struct.dlist_head], %struct.XidCacheStatus, %struct.XidCache, i8, %struct.pg_atomic_uint32, i32, i32, i8, %struct.pg_atomic_uint32, i32, i32, i64, i64, %struct.LWLock, ptr, ptr, i8, i32, ptr, %struct.dlist_head, %struct.dlist_node }
%struct.Latch = type { i32, i32, i8, i32 }
%struct.anon = type { i32, i32 }
%struct.proclist_node = type { i32, i32 }
%struct.pg_atomic_uint64 = type { i64 }
%struct.XidCacheStatus = type { i8, i8 }
%struct.XidCache = type { [64 x i32] }
%struct.pg_atomic_uint32 = type { i32 }
%struct.LWLock = type { i16, %struct.pg_atomic_uint32, %struct.proclist_head }
%struct.proclist_head = type { i32, i32 }
%struct.dlist_head = type { %struct.dlist_node }
%struct.dlist_node = type { ptr, ptr }
%struct.PROC_HDR = type { ptr, ptr, ptr, ptr, i32, %struct.dlist_head, %struct.dlist_head, %struct.dlist_head, %struct.dlist_head, %struct.pg_atomic_uint32, %struct.pg_atomic_uint32, i32, i32, i32, i32 }
%union.LWLockPadded = type { %struct.LWLock, [112 x i8] }
%struct.VirtualTransactionId = type { i32, i32 }

@TwoPhaseState = internal global ptr null, align 8
@ProcGlobal = external global ptr, align 8
@MainLWLockArray = external global ptr, align 8

; Function Attrs: nounwind uwtable
define dso_local i32 @TwoPhaseGetXidByVirtualXID(i64 %0, ptr noundef %1) #0 {
  %3 = alloca %struct.VirtualTransactionId, align 4
  %4 = alloca ptr, align 8
  %5 = alloca i32, align 4
  %6 = alloca i32, align 4
  %7 = alloca ptr, align 8
  %8 = alloca ptr, align 8
  %9 = alloca %struct.VirtualTransactionId, align 4
  %10 = alloca i32, align 4
  store i64 %0, ptr %3, align 4
  store ptr %1, ptr %4, align 8
  call void @llvm.lifetime.start.p0(i64 4, ptr %5) #12
  call void @llvm.lifetime.start.p0(i64 4, ptr %6) #12
  store i32 0, ptr %6, align 4
  %11 = load ptr, ptr @MainLWLockArray, align 8
  %12 = getelementptr inbounds %union.LWLockPadded, ptr %11, i64 18
  %13 = call zeroext i1 @LWLockAcquire(ptr noundef %12, i32 noundef 1)
  store i32 0, ptr %5, align 4
  br label %14

14:                                               ; preds = %75, %2
  %15 = load i32, ptr %5, align 4
  %16 = load ptr, ptr @TwoPhaseState, align 8
  %17 = getelementptr inbounds nuw %struct.TwoPhaseStateData, ptr %16, i32 0, i32 1
  %18 = load i32, ptr %17, align 8
  %19 = icmp slt i32 %15, %18
  br i1 %19, label %20, label %78

20:                                               ; preds = %14
  call void @llvm.lifetime.start.p0(i64 8, ptr %7) #12
  %21 = load ptr, ptr @TwoPhaseState, align 8
  %22 = getelementptr inbounds nuw %struct.TwoPhaseStateData, ptr %21, i32 0, i32 2
  %23 = load i32, ptr %5, align 4
  %24 = sext i32 %23 to i64
  %25 = getelementptr inbounds [0 x ptr], ptr %22, i64 0, i64 %24
  %26 = load ptr, ptr %25, align 8
  store ptr %26, ptr %7, align 8
  call void @llvm.lifetime.start.p0(i64 8, ptr %8) #12
  call void @llvm.lifetime.start.p0(i64 8, ptr %9) #12
  %27 = load ptr, ptr %7, align 8
  %28 = getelementptr inbounds nuw %struct.GlobalTransactionData, ptr %27, i32 0, i32 8
  %29 = load i8, ptr %28, align 4, !range !4, !noundef !5
  %30 = trunc i8 %29 to i1
  br i1 %30, label %32, label %31

31:                                               ; preds = %20
  store i32 4, ptr %10, align 4
  br label %72

32:                                               ; preds = %20
  %33 = load ptr, ptr @ProcGlobal, align 8
  %34 = getelementptr inbounds nuw %struct.PROC_HDR, ptr %33, i32 0, i32 0
  %35 = load ptr, ptr %34, align 8
  %36 = load ptr, ptr %7, align 8
  %37 = getelementptr inbounds nuw %struct.GlobalTransactionData, ptr %36, i32 0, i32 1
  %38 = load i32, ptr %37, align 8
  %39 = sext i32 %38 to i64
  %40 = getelementptr inbounds %struct.PGPROC, ptr %35, i64 %39
  store ptr %40, ptr %8, align 8
  %41 = load ptr, ptr %8, align 8
  %42 = getelementptr inbounds nuw %struct.PGPROC, ptr %41, i32 0, i32 9
  %43 = getelementptr inbounds nuw %struct.anon, ptr %42, i32 0, i32 0
  %44 = load i32, ptr %43, align 4
  %45 = getelementptr inbounds nuw %struct.VirtualTransactionId, ptr %9, i32 0, i32 0
  store i32 %44, ptr %45, align 4
  %46 = load ptr, ptr %8, align 8
  %47 = getelementptr inbounds nuw %struct.PGPROC, ptr %46, i32 0, i32 9
  %48 = getelementptr inbounds nuw %struct.anon, ptr %47, i32 0, i32 1
  %49 = load i32, ptr %48, align 4
  %50 = getelementptr inbounds nuw %struct.VirtualTransactionId, ptr %9, i32 0, i32 1
  store i32 %49, ptr %50, align 4
  %51 = getelementptr inbounds nuw %struct.VirtualTransactionId, ptr %3, i32 0, i32 0
  %52 = load i32, ptr %51, align 4
  %53 = getelementptr inbounds nuw %struct.VirtualTransactionId, ptr %9, i32 0, i32 0
  %54 = load i32, ptr %53, align 4
  %55 = icmp eq i32 %52, %54
  br i1 %55, label %56, label %71

56:                                               ; preds = %32
  %57 = getelementptr inbounds nuw %struct.VirtualTransactionId, ptr %3, i32 0, i32 1
  %58 = load i32, ptr %57, align 4
  %59 = getelementptr inbounds nuw %struct.VirtualTransactionId, ptr %9, i32 0, i32 1
  %60 = load i32, ptr %59, align 4
  %61 = icmp eq i32 %58, %60
  br i1 %61, label %62, label %71

62:                                               ; preds = %56
  %63 = load i32, ptr %6, align 4
  %64 = icmp ne i32 %63, 0
  br i1 %64, label %65, label %67

65:                                               ; preds = %62
  %66 = load ptr, ptr %4, align 8
  store i8 1, ptr %66, align 1
  store i32 2, ptr %10, align 4
  br label %72

67:                                               ; preds = %62
  %68 = load ptr, ptr %7, align 8
  %69 = getelementptr inbounds nuw %struct.GlobalTransactionData, ptr %68, i32 0, i32 5
  %70 = load i32, ptr %69, align 8
  store i32 %70, ptr %6, align 4
  br label %71

71:                                               ; preds = %67, %56, %32
  store i32 0, ptr %10, align 4
  br label %72

72:                                               ; preds = %71, %65, %31
  call void @llvm.lifetime.end.p0(i64 8, ptr %9) #12
  call void @llvm.lifetime.end.p0(i64 8, ptr %8) #12
  call void @llvm.lifetime.end.p0(i64 8, ptr %7) #12
  %73 = load i32, ptr %10, align 4
  switch i32 %73, label %82 [
    i32 0, label %74
    i32 4, label %75
    i32 2, label %78
  ]

74:                                               ; preds = %72
  br label %75

75:                                               ; preds = %74, %72
  %76 = load i32, ptr %5, align 4
  %77 = add i32 %76, 1
  store i32 %77, ptr %5, align 4
  br label %14, !llvm.loop !14

78:                                               ; preds = %72, %14
  %79 = load ptr, ptr @MainLWLockArray, align 8
  %80 = getelementptr inbounds %union.LWLockPadded, ptr %79, i64 18
  call void @LWLockRelease(ptr noundef %80)
  %81 = load i32, ptr %6, align 4
  store i32 1, ptr %10, align 4
  call void @llvm.lifetime.end.p0(i64 4, ptr %6) #12
  call void @llvm.lifetime.end.p0(i64 4, ptr %5) #12
  ret i32 %81

82:                                               ; preds = %72
  unreachable
}