; Function Attrs: nounwind uwtable
define dso_local i32 @TwoPhaseGetXidByVirtualXID(i64 %0, ptr noundef writeonly captures(none) %1) local_unnamed_addr #0 {
  %.sroa.011.0.extract.trunc = trunc i64 %0 to i32
  %.sroa.2.0.extract.shift = lshr i64 %0, 32
  %.sroa.2.0.extract.trunc = trunc nuw i64 %.sroa.2.0.extract.shift to i32
  %3 = load ptr, ptr @MainLWLockArray, align 8
  %4 = getelementptr inbounds nuw i8, ptr %3, i64 2304
  %5 = tail call zeroext i1 @LWLockAcquire(ptr noundef nonnull %4, i32 noundef 1) #14
  %6 = load ptr, ptr @TwoPhaseState, align 8
  %7 = getelementptr inbounds nuw i8, ptr %6, i64 8
  %8 = load i32, ptr %7, align 8
  %9 = icmp sgt i32 %8, 0
  br i1 %9, label %.lr.ph, label %.loopexit

.lr.ph:                                           ; preds = %2
  %10 = getelementptr inbounds nuw i8, ptr %6, i64 16
  %11 = load ptr, ptr @ProcGlobal, align 8
  %wide.trip.count = zext nneg i32 %8 to i64
  br label %12

12:                                               ; preds = %.lr.ph, %35
  %indvars.iv = phi i64 [ 0, %.lr.ph ], [ %indvars.iv.next, %35 ]
  %.01321 = phi i32 [ 0, %.lr.ph ], [ %.2.ph, %35 ]
  %13 = getelementptr inbounds nuw [0 x ptr], ptr %10, i64 0, i64 %indvars.iv
  %14 = load ptr, ptr %13, align 8
  %15 = getelementptr inbounds nuw i8, ptr %14, i64 52
  %16 = load i8, ptr %15, align 4, !range !4, !noundef !5
  %17 = trunc nuw i8 %16 to i1
  br i1 %17, label %18, label %35

18:                                               ; preds = %12
  %19 = load ptr, ptr %11, align 8
  %20 = getelementptr inbounds nuw i8, ptr %14, i64 8
  %21 = load i32, ptr %20, align 8
  %22 = sext i32 %21 to i64
  %23 = getelementptr inbounds %struct.PGPROC, ptr %19, i64 %22, i32 9
  %24 = load i32, ptr %23, align 4
  %25 = icmp eq i32 %24, %.sroa.011.0.extract.trunc
  br i1 %25, label %26, label %35

26:                                               ; preds = %18
  %27 = getelementptr inbounds nuw i8, ptr %23, i64 4
  %28 = load i32, ptr %27, align 4
  %29 = icmp eq i32 %28, %.sroa.2.0.extract.trunc
  br i1 %29, label %30, label %35

30:                                               ; preds = %26
  %.not = icmp eq i32 %.01321, 0
  br i1 %.not, label %31, label %34

31:                                               ; preds = %30
  %32 = getelementptr inbounds nuw i8, ptr %14, i64 40
  %33 = load i32, ptr %32, align 8
  br label %35

34:                                               ; preds = %30
  store i8 1, ptr %1, align 1
  br label %.loopexit

35:                                               ; preds = %12, %31, %26, %18
  %.2.ph = phi i32 [ %.01321, %18 ], [ %.01321, %26 ], [ %33, %31 ], [ %.01321, %12 ]
  %indvars.iv.next = add nuw nsw i64 %indvars.iv, 1
  %exitcond.not = icmp eq i64 %indvars.iv.next, %wide.trip.count
  br i1 %exitcond.not, label %.loopexit, label %12, !llvm.loop !13

.loopexit:                                        ; preds = %35, %2, %34
  %.01320 = phi i32 [ %.01321, %34 ], [ 0, %2 ], [ %.2.ph, %35 ]
  %36 = load ptr, ptr @MainLWLockArray, align 8
  %37 = getelementptr inbounds nuw i8, ptr %36, i64 2304
  tail call void @LWLockRelease(ptr noundef nonnull %37) #14
  ret i32 %.01320
}